target datalayout = "e-m:e-p270:32:32-p271:32:32-p272:64:64-i64:64-i128:128-f80:128-n8:16:32:64-S128"
target triple = "x86_64-pc-linux-gnu"

%struct._zend_compiler_globals = type { %struct._zend_stack, ptr, ptr, i32, ptr, ptr, ptr, ptr, i8, i8, i8, i8, i8, %struct._zend_llist, ptr, i8, i8, i8, i8, ptr, i32, i32, %struct._zend_oparray_context, %struct._zend_file_context, ptr, %struct._zend_array, ptr, i64, i8, i8, i8, ptr, ptr, %struct._zend_stack, ptr, i32, ptr, ptr, i64, i64, ptr, ptr, ptr, ptr, i32, %struct._zend_stack }
%struct._zend_llist = type { ptr, ptr, i64, i64, ptr, i8, ptr }
%struct._zend_oparray_context = type { i32, i32, i32, i32, i32, i32, i32, ptr, ptr, i8 }
%struct._zend_file_context = type { %struct._zend_declarables, ptr, i8, i8, ptr, ptr, ptr, %struct._zend_array }
%struct._zend_declarables = type { i64 }
%struct._zend_array = type { %struct._zend_refcounted_h, %union.anon.5, i32, %union.anon.7, i32, i32, i32, i32, i64, ptr }
%struct._zend_refcounted_h = type { i32, %union.anon.3 }
%union.anon.3 = type { i32 }
%union.anon.5 = type { i32 }
%union.anon.7 = type { ptr }
%struct._zend_stack = type { i32, i32, i32, ptr }
%struct.zend_type = type { ptr, i32 }
%struct._zval_struct = type { %union._zend_value, %union.anon, %union.anon.2 }
%union._zend_value = type { i64 }
%union.anon = type { i32 }
%union.anon.2 = type { i32 }
%struct._zend_string = type { %struct._zend_refcounted_h, i64, i64, [1 x i8] }
%struct._zend_class_entry = type { i8, ptr, %union.anon.4, i32, i32, i32, i32, ptr, ptr, ptr, %struct._zend_array, %struct._zend_array, %struct._zend_array, ptr, ptr, ptr, ptr, ptr, ptr, ptr, ptr, ptr, ptr, ptr, ptr, ptr, ptr, ptr, ptr, ptr, ptr, ptr, %union.anon.8, ptr, ptr, ptr, ptr, i32, i32, %union.anon.9, ptr, ptr, ptr, ptr, i32, ptr, ptr, %union.anon.10 }
%union.anon.4 = type { ptr }
%union.anon.8 = type { ptr }
%union.anon.9 = type { ptr }
%union.anon.10 = type { %struct.anon.11 }
%struct.anon.11 = type { ptr, i32, i32 }
%struct._zend_class_mutable_data = type { ptr, ptr, i32, ptr }
%struct._zend_class_constant = type { %struct._zval_struct, ptr, ptr, ptr, %struct.zend_type }
%struct.anon.0 = type { i8, i8, %union.anon.1 }
%union.anon.1 = type { i16 }
%struct._zend_ast_ref = type { %struct._zend_refcounted_h }
%struct._zend_ast = type { i16, i16, i32, [1 x ptr] }
%struct._zend_ast_zval = type { i16, i16, %struct._zval_struct }

@compiler_globals = external global %struct._zend_compiler_globals, align 8

; Function Attrs: nounwind uwtable
define internal ptr @create_enum_case_ast(ptr noundef %0, ptr noundef %1, ptr noundef %2) #0 {
  %4 = alloca ptr, align 8
  %5 = alloca ptr, align 8
  %6 = alloca ptr, align 8
  %7 = alloca i32, align 4
  %8 = alloca i32, align 4
  %9 = alloca ptr, align 8
  %10 = alloca i32, align 4
  %11 = alloca i32, align 4
  %12 = alloca i32, align 4
  %13 = alloca ptr, align 8
  %14 = alloca ptr, align 8
  %15 = alloca ptr, align 8
  %16 = alloca i64, align 8
  %17 = alloca ptr, align 8
  %18 = alloca ptr, align 8
  %19 = alloca ptr, align 8
  %20 = alloca ptr, align 8
  %21 = alloca ptr, align 8
  %22 = alloca ptr, align 8
  %23 = alloca ptr, align 8
  %24 = alloca ptr, align 8
  %25 = alloca ptr, align 8
  %26 = alloca ptr, align 8
  %27 = alloca i32, align 4
  store ptr %0, ptr %13, align 8
  store ptr %1, ptr %14, align 8
  store ptr %2, ptr %15, align 8
  store i32 3, ptr %7, align 4
  %28 = load i32, ptr %7, align 4
  %29 = zext i32 %28 to i64
  %30 = mul i64 8, %29
  %31 = add i64 8, %30
  %32 = add i64 8, %31
  %33 = load ptr, ptr %15, align 8
  %34 = icmp ne ptr %33, null
  %35 = select i1 %34, i32 3, i32 2
  %36 = sext i32 %35 to i64
  %37 = mul i64 %36, 24
  %38 = add i64 %32, %37
  store i64 %38, ptr %16, align 8
  %39 = load i64, ptr %16, align 8
  %40 = call noalias ptr @__zend_malloc(i64 noundef %39) #18
  store ptr %40, ptr %17, align 8
  %41 = load ptr, ptr %17, align 8
  store ptr %41, ptr %18, align 8
  %42 = load ptr, ptr %17, align 8
  %43 = getelementptr inbounds i8, ptr %42, i64 8
  store ptr %43, ptr %17, align 8
  %44 = load ptr, ptr %18, align 8
  %45 = getelementptr inbounds %struct._zend_ast_ref, ptr %44, i32 0, i32 0
  store ptr %45, ptr %9, align 8
  store i32 1, ptr %10, align 4
  %46 = load i32, ptr %10, align 4
  %47 = load ptr, ptr %9, align 8
  store i32 %46, ptr %47, align 4
  %48 = load ptr, ptr %18, align 8
  %49 = getelementptr inbounds %struct._zend_ast_ref, ptr %48, i32 0, i32 0
  %50 = getelementptr inbounds %struct._zend_refcounted_h, ptr %49, i32 0, i32 1
  store i32 219, ptr %50, align 4
  %51 = load ptr, ptr %17, align 8
  store ptr %51, ptr %19, align 8
  store i32 3, ptr %8, align 4
  %52 = load i32, ptr %8, align 4
  %53 = zext i32 %52 to i64
  %54 = mul i64 8, %53
  %55 = add i64 8, %54
  %56 = load ptr, ptr %17, align 8
  %57 = getelementptr inbounds i8, ptr %56, i64 %55
  store ptr %57, ptr %17, align 8
  %58 = load ptr, ptr %19, align 8
  %59 = getelementptr inbounds %struct._zend_ast, ptr %58, i32 0, i32 0
  store i16 778, ptr %59, align 8
  %60 = load ptr, ptr %19, align 8
  %61 = getelementptr inbounds %struct._zend_ast, ptr %60, i32 0, i32 1
  store i16 0, ptr %61, align 2
  %62 = load ptr, ptr %19, align 8
  %63 = getelementptr inbounds %struct._zend_ast, ptr %62, i32 0, i32 2
  store i32 0, ptr %63, align 4
  %64 = load ptr, ptr %17, align 8
  %65 = load ptr, ptr %19, align 8
  %66 = getelementptr inbounds %struct._zend_ast, ptr %65, i32 0, i32 3
  %67 = getelementptr inbounds [1 x ptr], ptr %66, i64 0, i64 0
  store ptr %64, ptr %67, align 8
  %68 = load ptr, ptr %17, align 8
  %69 = getelementptr inbounds i8, ptr %68, i64 24
  store ptr %69, ptr %17, align 8
  %70 = load ptr, ptr %19, align 8
  %71 = getelementptr inbounds %struct._zend_ast, ptr %70, i32 0, i32 3
  %72 = getelementptr inbounds [1 x ptr], ptr %71, i64 0, i64 0
  %73 = load ptr, ptr %72, align 8
  %74 = getelementptr inbounds %struct._zend_ast, ptr %73, i32 0, i32 0
  store i16 64, ptr %74, align 8
  %75 = load ptr, ptr %19, align 8
  %76 = getelementptr inbounds %struct._zend_ast, ptr %75, i32 0, i32 3
  %77 = getelementptr inbounds [1 x ptr], ptr %76, i64 0, i64 0
  %78 = load ptr, ptr %77, align 8
  %79 = getelementptr inbounds %struct._zend_ast, ptr %78, i32 0, i32 1
  store i16 0, ptr %79, align 2
  br label %80

80:                                               ; preds = %3
  %81 = load ptr, ptr %19, align 8
  %82 = getelementptr inbounds %struct._zend_ast, ptr %81, i32 0, i32 3
  %83 = getelementptr inbounds [1 x ptr], ptr %82, i64 0, i64 0
  %84 = load ptr, ptr %83, align 8
  store ptr %84, ptr %4, align 8
  %85 = load ptr, ptr %4, align 8
  %86 = load i16, ptr %85, align 8
  %87 = zext i16 %86 to i32
  %88 = icmp eq i32 %87, 64
  call void @llvm.assume(i1 %88)
  %89 = load ptr, ptr %4, align 8
  %90 = getelementptr inbounds %struct._zend_ast_zval, ptr %89, i32 0, i32 2
  store ptr %90, ptr %20, align 8
  %91 = load ptr, ptr %13, align 8
  store ptr %91, ptr %21, align 8
  %92 = load ptr, ptr %21, align 8
  %93 = load ptr, ptr %20, align 8
  %94 = getelementptr inbounds %struct._zval_struct, ptr %93, i32 0, i32 0
  store ptr %92, ptr %94, align 8
  %95 = load ptr, ptr %21, align 8
  %96 = getelementptr inbounds %struct._zend_string, ptr %95, i32 0, i32 0
  %97 = getelementptr inbounds %struct._zend_refcounted_h, ptr %96, i32 0, i32 1
  %98 = load i32, ptr %97, align 4
  store i32 %98, ptr %11, align 4
  %99 = load i32, ptr %11, align 4
  %100 = and i32 %99, 1008
  %101 = and i32 %100, 64
  %102 = icmp ne i32 %101, 0
  %103 = select i1 %102, i32 6, i32 262
  %104 = load ptr, ptr %20, align 8
  %105 = getelementptr inbounds %struct._zval_struct, ptr %104, i32 0, i32 1
  store i32 %103, ptr %105, align 8
  br label %106

106:                                              ; preds = %80
  %107 = load ptr, ptr %17, align 8
  %108 = load ptr, ptr %19, align 8
  %109 = getelementptr inbounds %struct._zend_ast, ptr %108, i32 0, i32 3
  %110 = getelementptr inbounds [1 x ptr], ptr %109, i64 0, i64 1
  store ptr %107, ptr %110, align 8
  %111 = load ptr, ptr %17, align 8
  %112 = getelementptr inbounds i8, ptr %111, i64 24
  store ptr %112, ptr %17, align 8
  %113 = load ptr, ptr %19, align 8
  %114 = getelementptr inbounds %struct._zend_ast, ptr %113, i32 0, i32 3
  %115 = getelementptr inbounds [1 x ptr], ptr %114, i64 0, i64 1
  %116 = load ptr, ptr %115, align 8
  %117 = getelementptr inbounds %struct._zend_ast, ptr %116, i32 0, i32 0
  store i16 64, ptr %117, align 8
  %118 = load ptr, ptr %19, align 8
  %119 = getelementptr inbounds %struct._zend_ast, ptr %118, i32 0, i32 3
  %120 = getelementptr inbounds [1 x ptr], ptr %119, i64 0, i64 1
  %121 = load ptr, ptr %120, align 8
  %122 = getelementptr inbounds %struct._zend_ast, ptr %121, i32 0, i32 1
  store i16 0, ptr %122, align 2
  br label %123

123:                                              ; preds = %106
  %124 = load ptr, ptr %19, align 8
  %125 = getelementptr inbounds %struct._zend_ast, ptr %124, i32 0, i32 3
  %126 = getelementptr inbounds [1 x ptr], ptr %125, i64 0, i64 1
  %127 = load ptr, ptr %126, align 8
  store ptr %127, ptr %5, align 8
  %128 = load ptr, ptr %5, align 8
  %129 = load i16, ptr %128, align 8
  %130 = zext i16 %129 to i32
  %131 = icmp eq i32 %130, 64
  call void @llvm.assume(i1 %131)
  %132 = load ptr, ptr %5, align 8
  %133 = getelementptr inbounds %struct._zend_ast_zval, ptr %132, i32 0, i32 2
  store ptr %133, ptr %22, align 8
  %134 = load ptr, ptr %14, align 8
  store ptr %134, ptr %23, align 8
  %135 = load ptr, ptr %23, align 8
  %136 = load ptr, ptr %22, align 8
  %137 = getelementptr inbounds %struct._zval_struct, ptr %136, i32 0, i32 0
  store ptr %135, ptr %137, align 8
  %138 = load ptr, ptr %23, align 8
  %139 = getelementptr inbounds %struct._zend_string, ptr %138, i32 0, i32 0
  %140 = getelementptr inbounds %struct._zend_refcounted_h, ptr %139, i32 0, i32 1
  %141 = load i32, ptr %140, align 4
  store i32 %141, ptr %12, align 4
  %142 = load i32, ptr %12, align 4
  %143 = and i32 %142, 1008
  %144 = and i32 %143, 64
  %145 = icmp ne i32 %144, 0
  %146 = select i1 %145, i32 6, i32 262
  %147 = load ptr, ptr %22, align 8
  %148 = getelementptr inbounds %struct._zval_struct, ptr %147, i32 0, i32 1
  store i32 %146, ptr %148, align 8
  br label %149

149:                                              ; preds = %123
  %150 = load ptr, ptr %15, align 8
  %151 = icmp ne ptr %150, null
  br i1 %151, label %152, label %203

152:                                              ; preds = %149
  %153 = load ptr, ptr %17, align 8
  %154 = load ptr, ptr %19, align 8
  %155 = getelementptr inbounds %struct._zend_ast, ptr %154, i32 0, i32 3
  %156 = getelementptr inbounds [1 x ptr], ptr %155, i64 0, i64 2
  store ptr %153, ptr %156, align 8
  %157 = load ptr, ptr %17, align 8
  %158 = getelementptr inbounds i8, ptr %157, i64 24
  store ptr %158, ptr %17, align 8
  %159 = load ptr, ptr %19, align 8
  %160 = getelementptr inbounds %struct._zend_ast, ptr %159, i32 0, i32 3
  %161 = getelementptr inbounds [1 x ptr], ptr %160, i64 0, i64 2
  %162 = load ptr, ptr %161, align 8
  %163 = getelementptr inbounds %struct._zend_ast, ptr %162, i32 0, i32 0
  store i16 64, ptr %163, align 8
  %164 = load ptr, ptr %19, align 8
  %165 = getelementptr inbounds %struct._zend_ast, ptr %164, i32 0, i32 3
  %166 = getelementptr inbounds [1 x ptr], ptr %165, i64 0, i64 2
  %167 = load ptr, ptr %166, align 8
  %168 = getelementptr inbounds %struct._zend_ast, ptr %167, i32 0, i32 1
  store i16 0, ptr %168, align 2
  %169 = load ptr, ptr %15, align 8
  %170 = getelementptr inbounds %struct._zval_struct, ptr %169, i32 0, i32 1
  %171 = getelementptr inbounds %struct.anon.0, ptr %170, i32 0, i32 1
  %172 = load i8, ptr %171, align 1
  %173 = zext i8 %172 to i32
  %174 = icmp ne i32 %173, 0
  %175 = xor i1 %174, true
  call void @llvm.assume(i1 %175)
  br label %176

176:                                              ; preds = %152
  %177 = load ptr, ptr %19, align 8
  %178 = getelementptr inbounds %struct._zend_ast, ptr %177, i32 0, i32 3
  %179 = getelementptr inbounds [1 x ptr], ptr %178, i64 0, i64 2
  %180 = load ptr, ptr %179, align 8
  store ptr %180, ptr %6, align 8
  %181 = load ptr, ptr %6, align 8
  %182 = load i16, ptr %181, align 8
  %183 = zext i16 %182 to i32
  %184 = icmp eq i32 %183, 64
  call void @llvm.assume(i1 %184)
  %185 = load ptr, ptr %6, align 8
  %186 = getelementptr inbounds %struct._zend_ast_zval, ptr %185, i32 0, i32 2
  store ptr %186, ptr %24, align 8
  %187 = load ptr, ptr %15, align 8
  store ptr %187, ptr %25, align 8
  %188 = load ptr, ptr %25, align 8
  %189 = getelementptr inbounds %struct._zval_struct, ptr %188, i32 0, i32 0
  %190 = load ptr, ptr %189, align 8
  store ptr %190, ptr %26, align 8
  %191 = load ptr, ptr %25, align 8
  %192 = getelementptr inbounds %struct._zval_struct, ptr %191, i32 0, i32 1
  %193 = load i32, ptr %192, align 8
  store i32 %193, ptr %27, align 4
  br label %194

194:                                              ; preds = %176
  %195 = load ptr, ptr %26, align 8
  %196 = load ptr, ptr %24, align 8
  %197 = getelementptr inbounds %struct._zval_struct, ptr %196, i32 0, i32 0
  store ptr %195, ptr %197, align 8
  %198 = load i32, ptr %27, align 4
  %199 = load ptr, ptr %24, align 8
  %200 = getelementptr inbounds %struct._zval_struct, ptr %199, i32 0, i32 1
  store i32 %198, ptr %200, align 8
  br label %201

201:                                              ; preds = %194
  br label %202

202:                                              ; preds = %201
  br label %207

203:                                              ; preds = %149
  %204 = load ptr, ptr %19, align 8
  %205 = getelementptr inbounds %struct._zend_ast, ptr %204, i32 0, i32 3
  %206 = getelementptr inbounds [1 x ptr], ptr %205, i64 0, i64 2
  store ptr null, ptr %206, align 8
  br label %207

207:                                              ; preds = %203, %202
  %208 = load ptr, ptr %18, align 8
  ret ptr %208
}

; Function Attrs: nounwind uwtable
define void @zend_enum_add_case(ptr noundef %0, ptr noundef %1, ptr noundef %2) #0 {
  %4 = alloca ptr, align 8
  %5 = alloca ptr, align 8
  %6 = alloca ptr, align 8
  %7 = alloca ptr, align 8
  %8 = alloca ptr, align 8
  %9 = alloca i32, align 4
  %10 = alloca i32, align 4
  %11 = alloca ptr, align 8
  %12 = alloca ptr, align 8
  %13 = alloca ptr, align 8
  %14 = alloca ptr, align 8
  %15 = alloca %struct._zval_struct, align 8
  %16 = alloca ptr, align 8
  %17 = alloca ptr, align 8
  %18 = alloca %struct._zval_struct, align 8
  %19 = alloca ptr, align 8
  store ptr %0, ptr %11, align 8
  store ptr %1, ptr %12, align 8
  store ptr %2, ptr %13, align 8
  %20 = load ptr, ptr %13, align 8
  %21 = icmp ne ptr %20, null
  br i1 %21, label %22, label %107

22:                                               ; preds = %3
  %23 = load ptr, ptr %13, align 8
  store ptr %23, ptr %7, align 8
  %24 = load ptr, ptr %7, align 8
  %25 = getelementptr inbounds %struct._zval_struct, ptr %24, i32 0, i32 1
  %26 = load i8, ptr %25, align 8
  %27 = zext i8 %26 to i32
  %28 = icmp eq i32 %27, 6
  br i1 %28, label %29, label %43

29:                                               ; preds = %22
  %30 = load ptr, ptr %13, align 8
  %31 = getelementptr inbounds %struct._zval_struct, ptr %30, i32 0, i32 0
  %32 = load ptr, ptr %31, align 8
  %33 = getelementptr inbounds %struct._zend_string, ptr %32, i32 0, i32 0
  %34 = getelementptr inbounds %struct._zend_refcounted_h, ptr %33, i32 0, i32 1
  %35 = load i32, ptr %34, align 4
  store i32 %35, ptr %9, align 4
  %36 = load i32, ptr %9, align 4
  %37 = and i32 %36, 1008
  %38 = and i32 %37, 64
  %39 = icmp ne i32 %38, 0
  br i1 %39, label %43, label %40

40:                                               ; preds = %29
  %41 = load ptr, ptr %13, align 8
  %42 = call ptr @zval_make_interned_string(ptr noundef %41)
  br label %43

43:                                               ; preds = %40, %29, %22
  %44 = load ptr, ptr %11, align 8
  store ptr %44, ptr %5, align 8
  %45 = load ptr, ptr %5, align 8
  %46 = getelementptr inbounds %struct._zend_class_entry, ptr %45, i32 0, i32 13
  %47 = load ptr, ptr %46, align 8
  %48 = icmp ne ptr %47, null
  br i1 %48, label %49, label %65

49:                                               ; preds = %43
  %50 = load ptr, ptr %5, align 8
  %51 = load i8, ptr %50, align 8
  %52 = sext i8 %51 to i32
  %53 = icmp eq i32 %52, 2
  br i1 %53, label %54, label %65

54:                                               ; preds = %49
  %55 = load ptr, ptr getelementptr inbounds (%struct._zend_compiler_globals, ptr @compiler_globals, i32 0, i32 37), align 8
  %56 = load ptr, ptr %5, align 8
  %57 = getelementptr inbounds %struct._zend_class_entry, ptr %56, i32 0, i32 13
  %58 = load ptr, ptr %57, align 8
  %59 = ptrtoint ptr %58 to i64
  %60 = getelementptr inbounds i8, ptr %55, i64 %59
  %61 = load ptr, ptr %60, align 8
  store ptr %61, ptr %6, align 8
  %62 = load ptr, ptr %6, align 8
  %63 = getelementptr inbounds %struct._zend_class_mutable_data, ptr %62, i32 0, i32 3
  %64 = load ptr, ptr %63, align 8
  store ptr %64, ptr %4, align 8
  br label %69

65:                                               ; preds = %49, %43
  %66 = load ptr, ptr %5, align 8
  %67 = getelementptr inbounds %struct._zend_class_entry, ptr %66, i32 0, i32 45
  %68 = load ptr, ptr %67, align 8
  store ptr %68, ptr %4, align 8
  br label %69

69:                                               ; preds = %65, %54
  %70 = load ptr, ptr %4, align 8
  store ptr %70, ptr %14, align 8
  br label %71

71:                                               ; preds = %69
  store ptr %15, ptr %16, align 8
  %72 = load ptr, ptr %12, align 8
  store ptr %72, ptr %17, align 8
  %73 = load ptr, ptr %17, align 8
  %74 = load ptr, ptr %16, align 8
  %75 = getelementptr inbounds %struct._zval_struct, ptr %74, i32 0, i32 0
  store ptr %73, ptr %75, align 8
  %76 = load ptr, ptr %17, align 8
  %77 = getelementptr inbounds %struct._zend_string, ptr %76, i32 0, i32 0
  %78 = getelementptr inbounds %struct._zend_refcounted_h, ptr %77, i32 0, i32 1
  %79 = load i32, ptr %78, align 4
  store i32 %79, ptr %10, align 4
  %80 = load i32, ptr %10, align 4
  %81 = and i32 %80, 1008
  %82 = and i32 %81, 64
  %83 = icmp ne i32 %82, 0
  %84 = select i1 %83, i32 6, i32 262
  %85 = load ptr, ptr %16, align 8
  %86 = getelementptr inbounds %struct._zval_struct, ptr %85, i32 0, i32 1
  store i32 %84, ptr %86, align 8
  br label %87

87:                                               ; preds = %71
  %88 = load ptr, ptr %13, align 8
  store ptr %88, ptr %8, align 8
  %89 = load ptr, ptr %8, align 8
  %90 = getelementptr inbounds %struct._zval_struct, ptr %89, i32 0, i32 1
  %91 = load i8, ptr %90, align 8
  %92 = zext i8 %91 to i32
  %93 = icmp eq i32 %92, 4
  br i1 %93, label %94, label %100

94:                                               ; preds = %87
  %95 = load ptr, ptr %14, align 8
  %96 = load ptr, ptr %13, align 8
  %97 = getelementptr inbounds %struct._zval_struct, ptr %96, i32 0, i32 0
  %98 = load i64, ptr %97, align 8
  %99 = call ptr @zend_hash_index_add_new(ptr noundef %95, i64 noundef %98, ptr noundef %15)
  br label %106

100:                                              ; preds = %87
  %101 = load ptr, ptr %14, align 8
  %102 = load ptr, ptr %13, align 8
  %103 = getelementptr inbounds %struct._zval_struct, ptr %102, i32 0, i32 0
  %104 = load ptr, ptr %103, align 8
  %105 = call ptr @zend_hash_add_new(ptr noundef %101, ptr noundef %104, ptr noundef %15)
  br label %106

106:                                              ; preds = %100, %94
  br label %112

107:                                              ; preds = %3
  %108 = load ptr, ptr %11, align 8
  %109 = getelementptr inbounds %struct._zend_class_entry, ptr %108, i32 0, i32 44
  %110 = load i32, ptr %109, align 8
  %111 = icmp eq i32 %110, 0
  call void @llvm.assume(i1 %111)
  br label %112

112:                                              ; preds = %107, %106
  %113 = getelementptr inbounds %struct._zval_struct, ptr %18, i32 0, i32 1
  store i32 11, ptr %113, align 8
  %114 = load ptr, ptr %11, align 8
  %115 = getelementptr inbounds %struct._zend_class_entry, ptr %114, i32 0, i32 1
  %116 = load ptr, ptr %115, align 8
  %117 = load ptr, ptr %12, align 8
  %118 = load ptr, ptr %13, align 8
  %119 = call ptr @create_enum_case_ast(ptr noundef %116, ptr noundef %117, ptr noundef %118)
  %120 = getelementptr inbounds %struct._zval_struct, ptr %18, i32 0, i32 0
  store ptr %119, ptr %120, align 8
  %121 = load ptr, ptr %11, align 8
  %122 = load ptr, ptr %12, align 8
  %123 = call ptr @zend_declare_class_constant_ex(ptr noundef %121, ptr noundef %122, ptr noundef %18, i32 noundef 1, ptr noundef null)
  store ptr %123, ptr %19, align 8
  %124 = load ptr, ptr %19, align 8
  %125 = getelementptr inbounds %struct._zend_class_constant, ptr %124, i32 0, i32 0
  %126 = getelementptr inbounds %struct._zval_struct, ptr %125, i32 0, i32 2
  %127 = load i32, ptr %126, align 4
  %128 = or i32 %127, 64
  store i32 %128, ptr %126, align 4
  ret void
}