; Function Attrs: nounwind uwtable
define void @zend_enum_add_case(ptr noundef %0, ptr noundef %1, ptr noundef %2) local_unnamed_addr #0 {
  %4 = alloca %struct._zval_struct, align 8
  %5 = alloca %struct._zval_struct, align 8
  %.not = icmp eq ptr %2, null
  br i1 %.not, label %45, label %6

6:                                                ; preds = %3
  %7 = getelementptr inbounds i8, ptr %2, i64 8
  %8 = load i8, ptr %7, align 8
  %9 = icmp eq i8 %8, 6
  br i1 %9, label %10, label %17

10:                                               ; preds = %6
  %11 = load ptr, ptr %2, align 8
  %12 = getelementptr inbounds i8, ptr %11, i64 4
  %13 = load i32, ptr %12, align 4
  %14 = and i32 %13, 64
  %.not33 = icmp eq i32 %14, 0
  br i1 %.not33, label %15, label %17

15:                                               ; preds = %10
  %16 = tail call ptr @zval_make_interned_string(ptr noundef nonnull %2) #12
  br label %17

17:                                               ; preds = %15, %10, %6
  %18 = getelementptr inbounds i8, ptr %0, i64 232
  %19 = load ptr, ptr %18, align 8
  %.not34 = icmp eq ptr %19, null
  br i1 %.not34, label %29, label %20

20:                                               ; preds = %17
  %21 = load i8, ptr %0, align 8
  %22 = icmp eq i8 %21, 2
  br i1 %22, label %23, label %29

23:                                               ; preds = %20
  %24 = load ptr, ptr getelementptr inbounds (%struct._zend_compiler_globals, ptr @compiler_globals, i64 0, i32 37), align 8
  %25 = ptrtoint ptr %19 to i64
  %26 = getelementptr inbounds i8, ptr %24, i64 %25
  %27 = load ptr, ptr %26, align 8
  %28 = getelementptr inbounds i8, ptr %27, i64 24
  br label %31

29:                                               ; preds = %20, %17
  %30 = getelementptr inbounds i8, ptr %0, i64 480
  br label %31

31:                                               ; preds = %29, %23
  %.0.in = phi ptr [ %28, %23 ], [ %30, %29 ]
  %.0 = load ptr, ptr %.0.in, align 8
  store ptr %1, ptr %4, align 8
  %32 = getelementptr inbounds i8, ptr %1, i64 4
  %33 = load i32, ptr %32, align 4
  %34 = and i32 %33, 64
  %.not35 = icmp eq i32 %34, 0
  %35 = select i1 %.not35, i32 262, i32 6
  %36 = getelementptr inbounds i8, ptr %4, i64 8
  store i32 %35, ptr %36, align 8
  %37 = load i8, ptr %7, align 8
  %38 = icmp eq i8 %37, 4
  br i1 %38, label %39, label %42

39:                                               ; preds = %31
  %40 = load i64, ptr %2, align 8
  %41 = call ptr @zend_hash_index_add_new(ptr noundef %.0, i64 noundef %40, ptr noundef nonnull %4) #12
  br label %49

42:                                               ; preds = %31
  %43 = load ptr, ptr %2, align 8
  %44 = call ptr @zend_hash_add_new(ptr noundef %.0, ptr noundef %43, ptr noundef nonnull %4) #12
  br label %49

45:                                               ; preds = %3
  %46 = getelementptr inbounds i8, ptr %0, i64 472
  %47 = load i32, ptr %46, align 8
  %48 = icmp eq i32 %47, 0
  tail call void @llvm.assume(i1 %48)
  br label %49

49:                                               ; preds = %39, %42, %45
  %50 = phi i64 [ 112, %39 ], [ 112, %42 ], [ 88, %45 ]
  %51 = getelementptr inbounds i8, ptr %5, i64 8
  store i32 11, ptr %51, align 8
  %52 = getelementptr inbounds i8, ptr %0, i64 8
  %53 = load ptr, ptr %52, align 8
  %54 = call noalias ptr @__zend_malloc(i64 noundef %50) #17
  %55 = getelementptr inbounds i8, ptr %54, i64 8
  store i32 1, ptr %54, align 4
  %56 = getelementptr inbounds i8, ptr %54, i64 4
  store i32 219, ptr %56, align 4
  %57 = getelementptr inbounds i8, ptr %54, i64 40
  store i16 778, ptr %55, align 8
  %58 = getelementptr inbounds i8, ptr %54, i64 10
  store i16 0, ptr %58, align 2
  %59 = getelementptr inbounds i8, ptr %54, i64 12
  store i32 0, ptr %59, align 4
  %60 = getelementptr inbounds i8, ptr %54, i64 16
  store ptr %57, ptr %60, align 8
  %61 = getelementptr inbounds i8, ptr %54, i64 64
  store i16 64, ptr %57, align 8
  %62 = getelementptr inbounds i8, ptr %54, i64 42
  store i16 0, ptr %62, align 2
  %63 = getelementptr inbounds i8, ptr %54, i64 48
  store ptr %53, ptr %63, align 8
  %64 = getelementptr inbounds i8, ptr %53, i64 4
  %65 = load i32, ptr %64, align 4
  %66 = and i32 %65, 64
  %.not61.i = icmp eq i32 %66, 0
  %67 = select i1 %.not61.i, i32 262, i32 6
  %68 = getelementptr inbounds i8, ptr %54, i64 56
  store i32 %67, ptr %68, align 8
  %69 = getelementptr inbounds i8, ptr %54, i64 24
  store ptr %61, ptr %69, align 8
  store i16 64, ptr %61, align 8
  %70 = getelementptr inbounds i8, ptr %54, i64 66
  store i16 0, ptr %70, align 2
  %71 = getelementptr inbounds i8, ptr %54, i64 72
  store ptr %1, ptr %71, align 8
  %72 = getelementptr inbounds i8, ptr %1, i64 4
  %73 = load i32, ptr %72, align 4
  %74 = and i32 %73, 64
  %.not62.i = icmp eq i32 %74, 0
  %75 = select i1 %.not62.i, i32 262, i32 6
  %76 = getelementptr inbounds i8, ptr %54, i64 80
  store i32 %75, ptr %76, align 8
  br i1 %.not, label %create_enum_case_ast.exit, label %77

77:                                               ; preds = %49
  %78 = getelementptr inbounds i8, ptr %54, i64 88
  store i16 64, ptr %78, align 8
  %79 = getelementptr inbounds i8, ptr %54, i64 90
  store i16 0, ptr %79, align 2
  %80 = getelementptr inbounds i8, ptr %2, i64 8
  %81 = getelementptr inbounds i8, ptr %2, i64 9
  %82 = load i8, ptr %81, align 1
  %.not63.i = icmp eq i8 %82, 0
  call void @llvm.assume(i1 %.not63.i)
  %83 = getelementptr inbounds i8, ptr %54, i64 96
  %84 = load ptr, ptr %2, align 8
  %85 = load i32, ptr %80, align 8
  store ptr %84, ptr %83, align 8
  %86 = getelementptr inbounds i8, ptr %54, i64 104
  store i32 %85, ptr %86, align 8
  br label %create_enum_case_ast.exit

create_enum_case_ast.exit:                        ; preds = %49, %77
  %.sink.i = phi ptr [ %78, %77 ], [ null, %49 ]
  %87 = getelementptr inbounds i8, ptr %54, i64 32
  store ptr %.sink.i, ptr %87, align 8
  store ptr %54, ptr %5, align 8
  %88 = call ptr @zend_declare_class_constant_ex(ptr noundef nonnull %0, ptr noundef nonnull %1, ptr noundef nonnull %5, i32 noundef 1, ptr noundef null) #12
  %89 = getelementptr inbounds i8, ptr %88, i64 12
  %90 = load i32, ptr %89, align 4
  %91 = or i32 %90, 64
  store i32 %91, ptr %89, align 4
  ret void
}